; Function Attrs: null_pointer_is_valid sspstrong uwtable
define i32 @prefs_set_custom_value(ptr noundef %0, ptr noundef %1, i32 noundef %2) local_unnamed_addr #1 {
  %4 = alloca i32, align 4
  call void @llvm.lifetime.start.p0(i64 4, ptr nonnull %4) #25
  store i32 0, ptr %4, align 4
  %5 = getelementptr inbounds nuw i8, ptr %0, i64 96
  %6 = load ptr, ptr %5, align 8
  %7 = call i32 %6(ptr noundef %0, ptr noundef %1, ptr noundef nonnull %4)
  %8 = load i32, ptr %4, align 4
  call void @llvm.lifetime.end.p0(i64 4, ptr nonnull %4) #25
  ret i32 %8
}